; Function Attrs: mustprogress uwtable
define hidden noundef zeroext i1 @_ZN4cvc58internal6theory22TheoryInferenceManager8lemmaExpENS0_12NodeTemplateILb1EEENS1_11InferenceIdENS_9ProofRuleERKSt6vectorIS4_SaIS4_EESB_SB_NS1_13LemmaPropertyE(ptr noundef nonnull align 8 dereferenceable(256) %this, ptr nocapture noundef readonly %conc, i32 noundef %id, i32 noundef %pfr, ptr noundef nonnull align 8 dereferenceable(24) %exp, ptr noundef nonnull align 8 dereferenceable(24) %noExplain, ptr noundef nonnull align 8 dereferenceable(24) %args, i32 noundef %p) local_unnamed_addr #3 align 2 personality ptr @__gxx_personality_v0 {
entry:
  %trn = alloca %"class.cvc5::internal::TrustNode", align 8
  %agg.tmp = alloca %"class.cvc5::internal::NodeTemplate", align 8
  %0 = load ptr, ptr %conc, align 8
  store ptr %0, ptr %agg.tmp, align 8
  %bf.load.i.i = load i64, ptr %0, align 8
  %bf.lshr.i.i = lshr i64 %bf.load.i.i, 40
  %1 = trunc i64 %bf.lshr.i.i to i32
  %bf.cast.i.i = and i32 %1, 1048575
  %cmp.i.i = icmp ult i32 %bf.cast.i.i, 1048574
  br i1 %cmp.i.i, label %if.then.i.i, label %if.else.i.i

if.then.i.i:                                      ; preds = %entry
  %bf.value.i.i = add i64 %bf.load.i.i, 1099511627776
  %bf.shl.i.i = and i64 %bf.value.i.i, 1152920405095219200
  %bf.clear7.i.i = and i64 %bf.load.i.i, -1152920405095219201
  %bf.set.i.i = or disjoint i64 %bf.shl.i.i, %bf.clear7.i.i
  store i64 %bf.set.i.i, ptr %0, align 8
  br label %_ZN4cvc58internal12NodeTemplateILb1EEC2ERKS2_.exit

if.else.i.i:                                      ; preds = %entry
  %cmp12.i.i = icmp eq i32 %bf.cast.i.i, 1048574
  br i1 %cmp12.i.i, label %if.then13.i.i, label %_ZN4cvc58internal12NodeTemplateILb1EEC2ERKS2_.exit

if.then13.i.i:                                    ; preds = %if.else.i.i
  %bf.set23.i.i = or i64 %bf.load.i.i, 1152920405095219200
  store i64 %bf.set23.i.i, ptr %0, align 8
  tail call void @_ZN4cvc58internal4expr9NodeValue20markRefCountMaxedOutEv(ptr noundef nonnull align 8 dereferenceable(16) %0)
  br label %_ZN4cvc58internal12NodeTemplateILb1EEC2ERKS2_.exit

_ZN4cvc58internal12NodeTemplateILb1EEC2ERKS2_.exit: ; preds = %if.then.i.i, %if.else.i.i, %if.then13.i.i
  invoke void @_ZN4cvc58internal6theory22TheoryInferenceManager10mkLemmaExpENS0_12NodeTemplateILb1EEENS_9ProofRuleERKSt6vectorIS4_SaIS4_EESA_SA_(ptr nonnull sret(%"class.cvc5::internal::TrustNode") align 8 %trn, ptr noundef nonnull align 8 dereferenceable(256) %this, ptr noundef nonnull %agg.tmp, i32 noundef %pfr, ptr noundef nonnull align 8 dereferenceable(24) %exp, ptr noundef nonnull align 8 dereferenceable(24) %noExplain, ptr noundef nonnull align 8 dereferenceable(24) %args)
          to label %invoke.cont unwind label %lpad

invoke.cont:                                      ; preds = %_ZN4cvc58internal12NodeTemplateILb1EEC2ERKS2_.exit
  %bf.load.i.i2 = load i64, ptr %0, align 8
  %2 = and i64 %bf.load.i.i2, 1152920405095219200
  %cmp.not.i.i = icmp eq i64 %2, 1152920405095219200
  br i1 %cmp.not.i.i, label %_ZN4cvc58internal12NodeTemplateILb1EED2Ev.exit, label %if.then.i.i3

if.then.i.i3:                                     ; preds = %invoke.cont
  %bf.value.i.i4 = add i64 %bf.load.i.i2, 1152920405095219200
  %bf.shl.i.i5 = and i64 %bf.value.i.i4, 1152920405095219200
  %bf.clear7.i.i6 = and i64 %bf.load.i.i2, -1152920405095219201
  %bf.set.i.i7 = or disjoint i64 %bf.shl.i.i5, %bf.clear7.i.i6
  store i64 %bf.set.i.i7, ptr %0, align 8
  %cmp12.i.i8 = icmp eq i64 %bf.shl.i.i5, 0
  br i1 %cmp12.i.i8, label %if.then13.i.i9, label %_ZN4cvc58internal12NodeTemplateILb1EED2Ev.exit

if.then13.i.i9:                                   ; preds = %if.then.i.i3
  invoke void @_ZN4cvc58internal4expr9NodeValue15markForDeletionEv(ptr noundef nonnull align 8 dereferenceable(16) %0)
          to label %_ZN4cvc58internal12NodeTemplateILb1EED2Ev.exit unwind label %terminate.lpad.i

terminate.lpad.i:                                 ; preds = %if.then13.i.i9
  %3 = landingpad { ptr, i32 }
          catch ptr null
  %4 = extractvalue { ptr, i32 } %3, 0
  call void @__clang_call_terminate(ptr %4) #26
  unreachable

_ZN4cvc58internal12NodeTemplateILb1EED2Ev.exit:   ; preds = %invoke.cont, %if.then.i.i3, %if.then13.i.i9
  %call = invoke noundef zeroext i1 @_ZN4cvc58internal6theory22TheoryInferenceManager12trustedLemmaERKNS0_9TrustNodeENS1_11InferenceIdENS1_13LemmaPropertyE(ptr noundef nonnull align 8 dereferenceable(256) %this, ptr noundef nonnull align 8 dereferenceable(24) %trn, i32 noundef %id, i32 noundef %p)
          to label %invoke.cont3 unwind label %lpad2

invoke.cont3:                                     ; preds = %_ZN4cvc58internal12NodeTemplateILb1EED2Ev.exit
  %d_proven.i = getelementptr inbounds i8, ptr %trn, i64 8
  %5 = load ptr, ptr %d_proven.i, align 8
  %bf.load.i.i.i = load i64, ptr %5, align 8
  %6 = and i64 %bf.load.i.i.i, 1152920405095219200
  %cmp.not.i.i.i = icmp eq i64 %6, 1152920405095219200
  br i1 %cmp.not.i.i.i, label %_ZN4cvc58internal9TrustNodeD2Ev.exit, label %if.then.i.i.i

if.then.i.i.i:                                    ; preds = %invoke.cont3
  %bf.value.i.i.i = add i64 %bf.load.i.i.i, 1152920405095219200
  %bf.shl.i.i.i = and i64 %bf.value.i.i.i, 1152920405095219200
  %bf.clear7.i.i.i = and i64 %bf.load.i.i.i, -1152920405095219201
  %bf.set.i.i.i = or disjoint i64 %bf.shl.i.i.i, %bf.clear7.i.i.i
  store i64 %bf.set.i.i.i, ptr %5, align 8
  %cmp12.i.i.i = icmp eq i64 %bf.shl.i.i.i, 0
  br i1 %cmp12.i.i.i, label %if.then13.i.i.i, label %_ZN4cvc58internal9TrustNodeD2Ev.exit

if.then13.i.i.i:                                  ; preds = %if.then.i.i.i
  invoke void @_ZN4cvc58internal4expr9NodeValue15markForDeletionEv(ptr noundef nonnull align 8 dereferenceable(16) %5)
          to label %_ZN4cvc58internal9TrustNodeD2Ev.exit unwind label %terminate.lpad.i.i

terminate.lpad.i.i:                               ; preds = %if.then13.i.i.i
  %7 = landingpad { ptr, i32 }
          catch ptr null
  %8 = extractvalue { ptr, i32 } %7, 0
  call void @__clang_call_terminate(ptr %8) #26
  unreachable

_ZN4cvc58internal9TrustNodeD2Ev.exit:             ; preds = %invoke.cont3, %if.then.i.i.i, %if.then13.i.i.i
  ret i1 %call

lpad:                                             ; preds = %_ZN4cvc58internal12NodeTemplateILb1EEC2ERKS2_.exit
  %9 = landingpad { ptr, i32 }
          cleanup
  call void @_ZN4cvc58internal12NodeTemplateILb1EED2Ev(ptr noundef nonnull align 8 dereferenceable(8) %agg.tmp) #25
  br label %eh.resume

lpad2:                                            ; preds = %_ZN4cvc58internal12NodeTemplateILb1EED2Ev.exit
  %10 = landingpad { ptr, i32 }
          cleanup
  call void @_ZN4cvc58internal9TrustNodeD2Ev(ptr noundef nonnull align 8 dereferenceable(24) %trn) #25
  br label %eh.resume

eh.resume:                                        ; preds = %lpad2, %lpad
  %.pn = phi { ptr, i32 } [ %10, %lpad2 ], [ %9, %lpad ]
  resume { ptr, i32 } %.pn
}